; Function Attrs: nounwind uwtable
define void @Gia_ManOrigIdsRemap(ptr noundef readonly captures(none) %0, ptr noundef captures(none) %1) local_unnamed_addr #0 {
  %3 = getelementptr inbounds nuw i8, ptr %0, i64 696
  %4 = load ptr, ptr %3, align 8, !tbaa !35
  %5 = icmp eq ptr %4, null
  br i1 %5, label %.critedge2, label %6

6:                                                ; preds = %2
  %7 = getelementptr inbounds nuw i8, ptr %1, i64 696
  %8 = load ptr, ptr %7, align 8, !tbaa !3
  %9 = icmp eq ptr %8, null
  br i1 %9, label %Vec_IntFreeP.exit.i, label %10

10:                                               ; preds = %6
  %11 = getelementptr inbounds nuw i8, ptr %8, i64 8
  %12 = load ptr, ptr %11, align 8, !tbaa !8
  %.not.i.i = icmp eq ptr %12, null
  br i1 %.not.i.i, label %15, label %.thread.i.i

.thread.i.i:                                      ; preds = %10
  tail call void @free(ptr noundef nonnull %12) #31
  %13 = load ptr, ptr %7, align 8, !tbaa !3
  %14 = getelementptr inbounds nuw i8, ptr %13, i64 8
  store ptr null, ptr %14, align 8, !tbaa !8
  br label %15

15:                                               ; preds = %.thread.i.i, %10
  %16 = phi ptr [ %13, %.thread.i.i ], [ %8, %10 ]
  tail call void @free(ptr noundef nonnull %16) #31
  store ptr null, ptr %7, align 8, !tbaa !3
  br label %Vec_IntFreeP.exit.i

Vec_IntFreeP.exit.i:                              ; preds = %15, %6
  %17 = getelementptr i8, ptr %1, i64 24
  %.val.i = load i32, ptr %17, align 8, !tbaa !12
  %18 = tail call noalias dereferenceable_or_null(16) ptr @malloc(i64 noundef 16) #32
  %19 = add i32 %.val.i, -1
  %or.cond.i.i.i = icmp ult i32 %19, 15
  %spec.store.select.i.i.i = select i1 %or.cond.i.i.i, i32 16, i32 %.val.i
  %20 = getelementptr inbounds nuw i8, ptr %18, i64 4
  store i32 %spec.store.select.i.i.i, ptr %18, align 8, !tbaa !30
  %.not.i.i.i = icmp ne i32 %spec.store.select.i.i.i, 0
  tail call void @llvm.assume(i1 %.not.i.i.i)
  %21 = sext i32 %spec.store.select.i.i.i to i64
  %22 = shl nsw i64 %21, 2
  %23 = tail call noalias ptr @malloc(i64 noundef %22) #32
  %24 = getelementptr inbounds nuw i8, ptr %18, i64 8
  store ptr %23, ptr %24, align 8, !tbaa !8
  store i32 %.val.i, ptr %20, align 4, !tbaa !31
  %.not.i3.i = icmp ne ptr %23, null
  tail call void @llvm.assume(i1 %.not.i3.i)
  %25 = sext i32 %.val.i to i64
  %26 = shl nsw i64 %25, 2
  tail call void @llvm.memset.p0.i64(ptr nonnull align 4 %23, i8 -1, i64 %26, i1 false)
  store ptr %18, ptr %7, align 8, !tbaa !35
  store i32 0, ptr %23, align 4, !tbaa !32
  %27 = getelementptr inbounds nuw i8, ptr %0, i64 24
  %28 = load i32, ptr %27, align 8, !tbaa !12
  %29 = icmp sgt i32 %28, 1
  br i1 %29, label %.lr.ph, label %.critedge2

.lr.ph:                                           ; preds = %Vec_IntFreeP.exit.i
  %30 = getelementptr i8, ptr %0, i64 32
  %.val30 = load ptr, ptr %30, align 8, !tbaa !36
  %31 = zext nneg i32 %28 to i64
  br label %32

32:                                               ; preds = %.lr.ph, %48
  %indvars.iv = phi i64 [ 1, %.lr.ph ], [ %indvars.iv.next, %48 ]
  %33 = getelementptr inbounds nuw %struct.Gia_Obj_t_, ptr %.val30, i64 %indvars.iv, i32 1
  %34 = load i32, ptr %33, align 4, !tbaa !37
  %.not26 = icmp eq i32 %34, -1
  br i1 %.not26, label %48, label %35

35:                                               ; preds = %32
  %36 = ashr i32 %34, 1
  %.not27 = icmp ult i32 %34, 2
  br i1 %.not27, label %48, label %37

37:                                               ; preds = %35
  %38 = load ptr, ptr %3, align 8, !tbaa !35
  %39 = getelementptr i8, ptr %38, i64 8
  %.val32 = load ptr, ptr %39, align 8, !tbaa !8
  %40 = getelementptr inbounds nuw i32, ptr %.val32, i64 %indvars.iv
  %41 = load i32, ptr %40, align 4, !tbaa !32
  %.not28 = icmp eq i32 %41, -1
  br i1 %.not28, label %48, label %42

42:                                               ; preds = %37
  %43 = sext i32 %36 to i64
  %44 = getelementptr inbounds i32, ptr %23, i64 %43
  %45 = load i32, ptr %44, align 4, !tbaa !32
  %46 = icmp eq i32 %45, -1
  br i1 %46, label %47, label %48

47:                                               ; preds = %42
  store i32 %41, ptr %44, align 4, !tbaa !32
  br label %48

48:                                               ; preds = %32, %35, %37, %42, %47
  %indvars.iv.next = add nuw nsw i64 %indvars.iv, 1
  %49 = icmp samesign ult i64 %indvars.iv.next, %31
  br i1 %49, label %32, label %.critedge2, !llvm.loop !39

.critedge2:                                       ; preds = %48, %Vec_IntFreeP.exit.i, %2
  ret void
}